; Function Attrs: mustprogress nounwind uwtable
define noundef i64 @_ZN11SecPassword6LengthEv(ptr noundef nonnull readonly align 8 captures(none) dereferenceable(25) %0) local_unnamed_addr #2 align 2 {
  %2 = alloca [512 x i32], align 16
  call void @llvm.lifetime.start.p0(i64 2048, ptr nonnull %2) #15
  %3 = getelementptr inbounds nuw i8, ptr %0, i64 24
  %4 = load i8, ptr %3, align 8, !tbaa !11, !range !23, !noundef !24
  %5 = trunc nuw i8 %4 to i1
  br i1 %5, label %6, label %27

6:                                                ; preds = %1
  %7 = load ptr, ptr %0, align 8, !tbaa !3
  %8 = getelementptr inbounds nuw i8, ptr %0, i64 8
  %9 = load ptr, ptr %8, align 8, !tbaa !10
  %10 = ptrtoint ptr %9 to i64
  %11 = ptrtoint ptr %7 to i64
  %12 = sub i64 %10, %11
  %13 = ashr exact i64 %12, 2
  %14 = tail call i64 @llvm.umin.i64(i64 %13, i64 512)
  %15 = shl nuw nsw i64 %14, 2
  call void @llvm.memcpy.p0.p0.i64(ptr nonnull align 16 %2, ptr nonnull readonly align 4 %7, i64 %15, i1 false)
  %16 = tail call i32 @getpid() #15
  %17 = zext i32 %16 to i64
  br label %18

18:                                               ; preds = %18, %6
  %.06.i.i.i = phi i64 [ 0, %6 ], [ %25, %18 ]
  %19 = add nuw nsw i64 %.06.i.i.i, %17
  %20 = getelementptr inbounds nuw i8, ptr %2, i64 %.06.i.i.i
  %21 = load i8, ptr %20, align 1, !tbaa !17
  %22 = trunc i64 %19 to i8
  %23 = add i8 %22, 75
  %24 = xor i8 %23, %21
  store i8 %24, ptr %20, align 1, !tbaa !17
  %25 = add nuw nsw i64 %.06.i.i.i, 1
  %exitcond.not.i.i.i = icmp eq i64 %25, 2048
  br i1 %exitcond.not.i.i.i, label %_ZN11SecPassword7ProcessEPKwmPwmb.exit.i, label %18, !llvm.loop !22

_ZN11SecPassword7ProcessEPKwmPwmb.exit.i:         ; preds = %18
  %26 = getelementptr inbounds nuw i8, ptr %2, i64 2044
  store i32 0, ptr %26, align 4, !tbaa !20
  br label %_ZN11SecPassword3GetEPwm.exit

27:                                               ; preds = %1
  store i32 0, ptr %2, align 16, !tbaa !20
  br label %_ZN11SecPassword3GetEPwm.exit

_ZN11SecPassword3GetEPwm.exit:                    ; preds = %_ZN11SecPassword7ProcessEPKwmPwmb.exit.i, %27
  %28 = call i64 @wcslen(ptr noundef nonnull %2) #14
  br label %.preheader.i

.preheader.i:                                     ; preds = %_ZN11SecPassword3GetEPwm.exit, %.preheader.i
  %.010.i = phi i64 [ %30, %.preheader.i ], [ 0, %_ZN11SecPassword3GetEPwm.exit ]
  %29 = getelementptr inbounds nuw i8, ptr %2, i64 %.010.i
  store volatile i8 0, ptr %29, align 1, !tbaa !17
  %30 = add nuw nsw i64 %.010.i, 1
  %exitcond.not.i = icmp eq i64 %30, 2048
  br i1 %exitcond.not.i, label %_Z9cleandataPvm.exit, label %.preheader.i, !llvm.loop !18

_Z9cleandataPvm.exit:                             ; preds = %.preheader.i
  call void @llvm.lifetime.end.p0(i64 2048, ptr nonnull %2) #15
  ret i64 %28
}